target datalayout = "e-m:e-p270:32:32-p271:32:32-p272:64:64-i64:64-i128:128-f80:128-n8:16:32:64-S128"
target triple = "x86_64-pc-linux-gnu"

; Function Attrs: mustprogress nounwind uwtable
define ptr @u_strncat_77(ptr noundef %0, ptr noundef %1, i32 noundef %2) #3 {
  %4 = alloca ptr, align 8
  %5 = alloca ptr, align 8
  %6 = alloca ptr, align 8
  %7 = alloca i32, align 4
  %8 = alloca ptr, align 8
  store ptr %0, ptr %5, align 8, !tbaa !3
  store ptr %1, ptr %6, align 8, !tbaa !3
  store i32 %2, ptr %7, align 4, !tbaa !8
  %9 = load i32, ptr %7, align 4, !tbaa !8
  %10 = icmp sgt i32 %9, 0
  br i1 %10, label %11, label %41

11:                                               ; preds = %3
  call void @llvm.lifetime.start.p0(i64 8, ptr %8) #7
  %12 = load ptr, ptr %5, align 8, !tbaa !3
  store ptr %12, ptr %8, align 8, !tbaa !3
  br label %13

13:                                               ; preds = %18, %11
  %14 = load ptr, ptr %5, align 8, !tbaa !3
  %15 = load i16, ptr %14, align 2, !tbaa !10
  %16 = zext i16 %15 to i32
  %17 = icmp ne i32 %16, 0
  br i1 %17, label %18, label %21

18:                                               ; preds = %13
  %19 = load ptr, ptr %5, align 8, !tbaa !3
  %20 = getelementptr inbounds nuw i16, ptr %19, i32 1
  store ptr %20, ptr %5, align 8, !tbaa !3
  br label %13, !llvm.loop !45

21:                                               ; preds = %13
  br label %22

22:                                               ; preds = %36, %21
  %23 = load ptr, ptr %6, align 8, !tbaa !3
  %24 = load i16, ptr %23, align 2, !tbaa !10
  %25 = load ptr, ptr %5, align 8, !tbaa !3
  store i16 %24, ptr %25, align 2, !tbaa !10
  %26 = zext i16 %24 to i32
  %27 = icmp ne i32 %26, 0
  br i1 %27, label %28, label %39

28:                                               ; preds = %22
  %29 = load ptr, ptr %5, align 8, !tbaa !3
  %30 = getelementptr inbounds nuw i16, ptr %29, i32 1
  store ptr %30, ptr %5, align 8, !tbaa !3
  %31 = load i32, ptr %7, align 4, !tbaa !8
  %32 = add nsw i32 %31, -1
  store i32 %32, ptr %7, align 4, !tbaa !8
  %33 = icmp eq i32 %32, 0
  br i1 %33, label %34, label %36

34:                                               ; preds = %28
  %35 = load ptr, ptr %5, align 8, !tbaa !3
  store i16 0, ptr %35, align 2, !tbaa !10
  br label %39

36:                                               ; preds = %28
  %37 = load ptr, ptr %6, align 8, !tbaa !3
  %38 = getelementptr inbounds nuw i16, ptr %37, i32 1
  store ptr %38, ptr %6, align 8, !tbaa !3
  br label %22, !llvm.loop !46

39:                                               ; preds = %34, %22
  %40 = load ptr, ptr %8, align 8, !tbaa !3
  store ptr %40, ptr %4, align 8
  call void @llvm.lifetime.end.p0(i64 8, ptr %8) #7
  br label %43

41:                                               ; preds = %3
  %42 = load ptr, ptr %5, align 8, !tbaa !3
  store ptr %42, ptr %4, align 8
  br label %43

43:                                               ; preds = %41, %39
  %44 = load ptr, ptr %4, align 8
  ret ptr %44
}