; Function Attrs: mustprogress nofree norecurse nosync nounwind memory(argmem: readwrite) uwtable
define noundef ptr @u_strncat_77(ptr noundef returned %0, ptr noundef readonly captures(none) %1, i32 noundef %2) local_unnamed_addr #5 {
  %4 = icmp sgt i32 %2, 0
  br i1 %4, label %.preheader17, label %.loopexit

.preheader17:                                     ; preds = %3, %.preheader17
  %.014 = phi ptr [ %6, %.preheader17 ], [ %0, %3 ]
  %5 = load i16, ptr %.014, align 2, !tbaa !3
  %.not = icmp eq i16 %5, 0
  %6 = getelementptr inbounds nuw i8, ptr %.014, i64 2
  br i1 %.not, label %.preheader, label %.preheader17, !llvm.loop !37

.preheader:                                       ; preds = %.preheader17
  %7 = load i16, ptr %1, align 2, !tbaa !3
  store i16 %7, ptr %.014, align 2, !tbaa !3
  %.not1618 = icmp eq i16 %7, 0
  br i1 %.not1618, label %.loopexit, label %.lr.ph

8:                                                ; preds = %.lr.ph
  %9 = getelementptr inbounds nuw i8, ptr %.01320, i64 2
  %10 = load i16, ptr %9, align 2, !tbaa !3
  store i16 %10, ptr %11, align 2, !tbaa !3
  %.not16 = icmp eq i16 %10, 0
  br i1 %.not16, label %.loopexit, label %.lr.ph, !llvm.loop !38

.lr.ph:                                           ; preds = %.preheader, %8
  %.01221 = phi i32 [ %12, %8 ], [ %2, %.preheader ]
  %.01320 = phi ptr [ %9, %8 ], [ %1, %.preheader ]
  %.119 = phi ptr [ %11, %8 ], [ %.014, %.preheader ]
  %11 = getelementptr inbounds nuw i8, ptr %.119, i64 2
  %12 = add nsw i32 %.01221, -1
  %13 = icmp eq i32 %12, 0
  br i1 %13, label %14, label %8

14:                                               ; preds = %.lr.ph
  store i16 0, ptr %11, align 2, !tbaa !3
  br label %.loopexit

.loopexit:                                        ; preds = %8, %.preheader, %3, %14
  ret ptr %0
}